target datalayout = "e-m:e-p270:32:32-p271:32:32-p272:64:64-i64:64-i128:128-f80:128-n8:16:32:64-S128"
target triple = "x86_64-pc-linux-gnu"

%struct.anon.8 = type { i32, ptr }

@.str.1 = private unnamed_addr constant [8 x i8] c"jsonb.c\00", align 1
@__func__.cannotCastJsonbValue = private unnamed_addr constant [21 x i8] c"cannotCastJsonbValue\00", align 1
@.str.60 = private unnamed_addr constant [23 x i8] c"unknown jsonb type: %d\00", align 1

; Function Attrs: nounwind uwtable
define internal void @cannotCastJsonbValue(i32 noundef %0, ptr noundef %1) #0 {
  %3 = alloca i32, align 4
  %4 = alloca ptr, align 8
  %5 = alloca i32, align 4
  store i32 %0, ptr %3, align 4
  store ptr %1, ptr %4, align 8
  call void @llvm.lifetime.start.p0(i64 4, ptr %5) #8
  store i32 0, ptr %5, align 4
  br label %6

6:                                                ; preds = %37, %2
  %7 = load i32, ptr %5, align 4
  %8 = sext i32 %7 to i64
  %9 = icmp ult i64 %8, 7
  br i1 %9, label %10, label %40

10:                                               ; preds = %6
  %11 = load i32, ptr %5, align 4
  %12 = sext i32 %11 to i64
  %13 = getelementptr inbounds [7 x %struct.anon.8], ptr @cannotCastJsonbValue.messages, i64 0, i64 %12
  %14 = getelementptr inbounds nuw %struct.anon.8, ptr %13, i32 0, i32 0
  %15 = load i32, ptr %14, align 16
  %16 = load i32, ptr %3, align 4
  %17 = icmp eq i32 %15, %16
  br i1 %17, label %18, label %36

18:                                               ; preds = %10
  br label %19

19:                                               ; preds = %18
  br i1 true, label %20, label %22

20:                                               ; preds = %19
  %21 = call zeroext i1 @errstart_cold(i32 noundef 21, ptr noundef null) #10
  br i1 %21, label %24, label %33

22:                                               ; preds = %19
  %23 = call zeroext i1 @errstart(i32 noundef 21, ptr noundef null)
  br i1 %23, label %24, label %33

24:                                               ; preds = %22, %20
  %25 = call i32 @errcode(i32 noundef 50856066)
  %26 = load i32, ptr %5, align 4
  %27 = sext i32 %26 to i64
  %28 = getelementptr inbounds [7 x %struct.anon.8], ptr @cannotCastJsonbValue.messages, i64 0, i64 %27
  %29 = getelementptr inbounds nuw %struct.anon.8, ptr %28, i32 0, i32 1
  %30 = load ptr, ptr %29, align 8
  %31 = load ptr, ptr %4, align 8
  %32 = call i32 (ptr, ...) @errmsg(ptr noundef %30, ptr noundef %31)
  call void @errfinish(ptr noundef @.str.1, i32 noundef 2031, ptr noundef @__func__.cannotCastJsonbValue)
  br label %33

33:                                               ; preds = %24, %22, %20
  unreachable

34:                                               ; No predecessors!
  br label %35

35:                                               ; preds = %34
  br label %36

36:                                               ; preds = %35, %10
  br label %37

37:                                               ; preds = %36
  %38 = load i32, ptr %5, align 4
  %39 = add i32 %38, 1
  store i32 %39, ptr %5, align 4
  br label %6, !llvm.loop !16

40:                                               ; preds = %6
  br label %41

41:                                               ; preds = %40
  br i1 true, label %42, label %44

42:                                               ; preds = %41
  %43 = call zeroext i1 @errstart_cold(i32 noundef 21, ptr noundef null) #10
  br i1 %43, label %46, label %49

44:                                               ; preds = %41
  %45 = call zeroext i1 @errstart(i32 noundef 21, ptr noundef null)
  br i1 %45, label %46, label %49

46:                                               ; preds = %44, %42
  %47 = load i32, ptr %3, align 4
  %48 = call i32 (ptr, ...) @errmsg_internal(ptr noundef @.str.60, i32 noundef %47)
  call void @errfinish(ptr noundef @.str.1, i32 noundef 2034, ptr noundef @__func__.cannotCastJsonbValue)
  br label %49

49:                                               ; preds = %46, %44, %42
  unreachable

50:                                               ; No predecessors!
  br label %51

51:                                               ; preds = %50
  call void @llvm.lifetime.end.p0(i64 4, ptr %5) #8
  ret void
}