; Function Attrs: noreturn nounwind uwtable
define internal fastcc void @cannotCastJsonbValue(i32 noundef %0, ptr noundef %1) unnamed_addr #6 {
  br label %4

3:                                                ; preds = %4
  %indvars.iv.next = add nuw nsw i64 %indvars.iv, 1
  %exitcond.not = icmp eq i64 %indvars.iv.next, 7
  br i1 %exitcond.not, label %14, label %4, !llvm.loop !20

4:                                                ; preds = %2, %3
  %indvars.iv = phi i64 [ 0, %2 ], [ %indvars.iv.next, %3 ]
  %5 = getelementptr inbounds nuw [7 x %struct.anon.8], ptr @cannotCastJsonbValue.messages, i64 0, i64 %indvars.iv
  %6 = load i32, ptr %5, align 16
  %7 = icmp eq i32 %6, %0
  br i1 %7, label %8, label %3

8:                                                ; preds = %4
  %9 = tail call zeroext i1 @errstart_cold(i32 noundef 21, ptr noundef null) #12
  tail call void @llvm.assume(i1 %9)
  %10 = tail call i32 @errcode(i32 noundef 50856066) #11
  %11 = getelementptr inbounds nuw i8, ptr %5, i64 8
  %12 = load ptr, ptr %11, align 8
  %13 = tail call i32 (ptr, ...) @errmsg(ptr noundef %12, ptr noundef %1) #11
  tail call void @errfinish(ptr noundef nonnull @.str.1, i32 noundef 2031, ptr noundef nonnull @__func__.cannotCastJsonbValue) #11
  unreachable

14:                                               ; preds = %3
  %15 = tail call zeroext i1 @errstart_cold(i32 noundef 21, ptr noundef null) #12
  tail call void @llvm.assume(i1 %15)
  %16 = tail call i32 (ptr, ...) @errmsg_internal(ptr noundef nonnull @.str.60, i32 noundef %0) #11
  tail call void @errfinish(ptr noundef nonnull @.str.1, i32 noundef 2034, ptr noundef nonnull @__func__.cannotCastJsonbValue) #11
  unreachable
}